; Function Attrs: nounwind uwtable
define range(i32 0, 2) i32 @dt_loc_init_user_cache_dir(ptr noundef %0) local_unnamed_addr #0 {
  %2 = tail call ptr @g_get_user_cache_dir() #11
  %3 = tail call noalias ptr (ptr, ...) @g_build_filename(ptr noundef %2, ptr noundef nonnull @.str.3, ptr noundef null) #11
  %4 = tail call ptr @dt_loc_init_generic(ptr noundef %0, ptr noundef null, ptr noundef %3)
  store ptr %4, ptr getelementptr inbounds nuw (i8, ptr @darktable, i64 3048), align 8, !tbaa !55
  tail call void @g_free(ptr noundef %3) #11
  %5 = load ptr, ptr getelementptr inbounds nuw (i8, ptr @darktable, i64 3048), align 8, !tbaa !55
  %6 = tail call i32 @dt_check_opendir(ptr noundef nonnull @.str.6, ptr noundef %5)
  ret i32 %6
}